target datalayout = "e-m:e-p270:32:32-p271:32:32-p272:64:64-i64:64-i128:128-f80:128-n8:16:32:64-S128"
target triple = "x86_64-pc-linux-gnu"

%"class.icu_77::CalendarAstronomer" = type <{ double, double, double, double, double, %"class.icu_77::CalendarAstronomer::Equatorial", i8, [7 x i8] }>
%"class.icu_77::CalendarAstronomer::Equatorial" = type { double, double }

; Function Attrs: inlinehint mustprogress uwtable
define internal noundef signext i8 @_ZL9isINVALIDd(double noundef %0) #3 {
  %2 = alloca double, align 8
  store double %0, ptr %2, align 8, !tbaa !15
  %3 = load double, ptr %2, align 8, !tbaa !15
  %4 = call signext i8 @uprv_isNaN_77(double noundef %3)
  ret i8 %4
}

; Function Attrs: mustprogress uwtable
define noundef double @_ZN6icu_7718CalendarAstronomer12getJulianDayEv(ptr noundef nonnull align 8 dereferenceable(57) %0) #0 align 2 {
  %2 = alloca ptr, align 8
  store ptr %0, ptr %2, align 8, !tbaa !3
  %3 = load ptr, ptr %2, align 8
  %4 = getelementptr inbounds nuw %"class.icu_77::CalendarAstronomer", ptr %3, i32 0, i32 1
  %5 = load double, ptr %4, align 8, !tbaa !18
  %6 = call noundef signext i8 @_ZL9isINVALIDd(double noundef %5)
  %7 = icmp ne i8 %6, 0
  br i1 %7, label %8, label %14

8:                                                ; preds = %1
  %9 = getelementptr inbounds nuw %"class.icu_77::CalendarAstronomer", ptr %3, i32 0, i32 0
  %10 = load double, ptr %9, align 8, !tbaa !8
  %11 = fsub double %10, 0xC2E7F907CA644000
  %12 = fdiv double %11, 8.640000e+07
  %13 = getelementptr inbounds nuw %"class.icu_77::CalendarAstronomer", ptr %3, i32 0, i32 1
  store double %12, ptr %13, align 8, !tbaa !18
  br label %14

14:                                               ; preds = %8, %1
  %15 = getelementptr inbounds nuw %"class.icu_77::CalendarAstronomer", ptr %3, i32 0, i32 1
  %16 = load double, ptr %15, align 8, !tbaa !18
  ret double %16
}

; Function Attrs: mustprogress uwtable
define noundef double @_ZN6icu_7718CalendarAstronomer17eclipticObliquityEv(ptr noundef nonnull align 8 dereferenceable(57) %0) #0 align 2 {
  %2 = alloca ptr, align 8
  %3 = alloca double, align 8
  %4 = alloca double, align 8
  %5 = alloca double, align 8
  store ptr %0, ptr %2, align 8, !tbaa !3
  %6 = load ptr, ptr %2, align 8
  call void @llvm.lifetime.start.p0(i64 8, ptr %3) #10
  store double 0x4142B42C80000000, ptr %3, align 8, !tbaa !15
  call void @llvm.lifetime.start.p0(i64 8, ptr %4) #10
  %7 = call noundef double @_ZN6icu_7718CalendarAstronomer12getJulianDayEv(ptr noundef nonnull align 8 dereferenceable(57) %6)
  %8 = fsub double %7, 0x4142B42C80000000
  %9 = fdiv double %8, 3.652500e+04
  store double %9, ptr %4, align 8, !tbaa !15
  call void @llvm.lifetime.start.p0(i64 8, ptr %5) #10
  %10 = load double, ptr %4, align 8, !tbaa !15
  %11 = call double @llvm.fmuladd.f64(double 0xBF8AA1EDB45C4BE9, double %10, double 0x4037707570C564F9)
  %12 = load double, ptr %4, align 8, !tbaa !15
  %13 = fmul double 0x3E865E9F80F29211, %12
  %14 = load double, ptr %4, align 8, !tbaa !15
  %15 = fneg double %13
  %16 = call double @llvm.fmuladd.f64(double %15, double %14, double %11)
  %17 = load double, ptr %4, align 8, !tbaa !15
  %18 = fmul double 0x3EA0DED40694CE29, %17
  %19 = load double, ptr %4, align 8, !tbaa !15
  %20 = fmul double %18, %19
  %21 = load double, ptr %4, align 8, !tbaa !15
  %22 = call double @llvm.fmuladd.f64(double %20, double %21, double %16)
  store double %22, ptr %5, align 8, !tbaa !15
  %23 = load double, ptr %5, align 8, !tbaa !15
  %24 = fmul double %23, 0x3F91DF46A2529D39
  call void @llvm.lifetime.end.p0(i64 8, ptr %5) #10
  call void @llvm.lifetime.end.p0(i64 8, ptr %4) #10
  call void @llvm.lifetime.end.p0(i64 8, ptr %3) #10
  ret double %24
}