; Function Attrs: mustprogress uwtable
define noundef double @_ZN6icu_7718CalendarAstronomer17eclipticObliquityEv(ptr noundef nonnull align 8 captures(none) dereferenceable(57) %0) local_unnamed_addr #0 align 2 {
  %2 = getelementptr inbounds nuw i8, ptr %0, i64 8
  %3 = load double, ptr %2, align 8, !tbaa !9
  %4 = tail call noundef signext i8 @uprv_isNaN_77(double noundef %3)
  %.not.i = icmp eq i8 %4, 0
  br i1 %.not.i, label %._crit_edge.i, label %5

._crit_edge.i:                                    ; preds = %1
  %.pre.i = load double, ptr %2, align 8, !tbaa !9
  br label %_ZN6icu_7718CalendarAstronomer12getJulianDayEv.exit

5:                                                ; preds = %1
  %6 = load double, ptr %0, align 8, !tbaa !3
  %7 = fadd double %6, 0x42E7F907CA644000
  %8 = fdiv double %7, 8.640000e+07
  store double %8, ptr %2, align 8, !tbaa !9
  br label %_ZN6icu_7718CalendarAstronomer12getJulianDayEv.exit

_ZN6icu_7718CalendarAstronomer12getJulianDayEv.exit: ; preds = %._crit_edge.i, %5
  %9 = phi double [ %.pre.i, %._crit_edge.i ], [ %8, %5 ]
  %10 = fadd double %9, 0xC142B42C80000000
  %11 = fdiv double %10, 3.652500e+04
  %12 = tail call double @llvm.fmuladd.f64(double %11, double 0xBF8AA1EDB45C4BE9, double 0x4037707570C564F9)
  %13 = fmul double %11, 0xBE865E9F80F29211
  %14 = tail call double @llvm.fmuladd.f64(double %13, double %11, double %12)
  %15 = fmul double %11, 0x3EA0DED40694CE29
  %16 = fmul double %11, %15
  %17 = tail call double @llvm.fmuladd.f64(double %16, double %11, double %14)
  %18 = fmul double %17, 0x3F91DF46A2529D39
  ret double %18
}